; Function Attrs: nounwind uwtable
define noundef ptr @Rtm_ObjAlloc(ptr noundef readonly captures(none) %0, i32 noundef %1, i32 noundef %2) local_unnamed_addr #2 {
  %4 = add nsw i32 %2, %1
  %5 = shl i32 %4, 4
  %6 = add i32 %5, 24
  %7 = getelementptr inbounds nuw i8, ptr %0, i64 24
  %8 = load ptr, ptr %7, align 8, !tbaa !32
  %9 = tail call ptr @Aig_MmFlexEntryFetch(ptr noundef %8, i32 noundef %6) #23
  tail call void @llvm.memset.p0.i64(ptr noundef nonnull align 8 dereferenceable(24) %9, i8 0, i64 24, i1 false)
  %10 = icmp eq i32 %1, 1
  %11 = icmp eq i32 %2, 0
  %12 = and i1 %10, %11
  %13 = zext i1 %12 to i32
  %14 = getelementptr inbounds nuw i8, ptr %9, i64 8
  %15 = shl i32 %1, 15
  %16 = or disjoint i32 %15, %13
  store i32 %16, ptr %14, align 8
  %17 = getelementptr inbounds nuw i8, ptr %9, i64 16
  store i32 %2, ptr %17, align 8, !tbaa !38
  %18 = load ptr, ptr %0, align 8, !tbaa !26
  %19 = getelementptr i8, ptr %18, i64 4
  %.val = load i32, ptr %19, align 4, !tbaa !22
  %20 = getelementptr inbounds nuw i8, ptr %9, i64 12
  store i32 %.val, ptr %20, align 4, !tbaa !40
  %21 = load i32, ptr %18, align 8, !tbaa !24
  %22 = icmp eq i32 %.val, %21
  br i1 %22, label %23, label %.Vec_PtrGrow.exit11_crit_edge.i

.Vec_PtrGrow.exit11_crit_edge.i:                  ; preds = %3
  %.phi.trans.insert.i = getelementptr inbounds nuw i8, ptr %18, i64 8
  %.pre.i = load ptr, ptr %.phi.trans.insert.i, align 8, !tbaa !25
  br label %Vec_PtrPush.exit

23:                                               ; preds = %3
  %24 = icmp slt i32 %.val, 16
  br i1 %24, label %25, label %33

25:                                               ; preds = %23
  %26 = getelementptr inbounds nuw i8, ptr %18, i64 8
  %27 = load ptr, ptr %26, align 8, !tbaa !25
  %.not9.i.i = icmp eq ptr %27, null
  br i1 %.not9.i.i, label %30, label %28

28:                                               ; preds = %25
  %29 = tail call dereferenceable_or_null(128) ptr @realloc(ptr noundef nonnull %27, i64 noundef 128) #24
  br label %Vec_PtrGrow.exit.i

30:                                               ; preds = %25
  %31 = tail call noalias dereferenceable_or_null(128) ptr @malloc(i64 noundef 128) #22
  br label %Vec_PtrGrow.exit.i

Vec_PtrGrow.exit.i:                               ; preds = %30, %28
  %32 = phi ptr [ %29, %28 ], [ %31, %30 ]
  store ptr %32, ptr %26, align 8, !tbaa !25
  store i32 16, ptr %18, align 8, !tbaa !24
  br label %Vec_PtrPush.exit

33:                                               ; preds = %23
  %34 = shl nuw nsw i32 %.val, 1
  %35 = getelementptr inbounds nuw i8, ptr %18, i64 8
  %36 = load ptr, ptr %35, align 8, !tbaa !25
  %.not9.i10.i = icmp eq ptr %36, null
  %37 = zext nneg i32 %34 to i64
  %38 = shl nuw nsw i64 %37, 3
  br i1 %.not9.i10.i, label %41, label %39

39:                                               ; preds = %33
  %40 = tail call ptr @realloc(ptr noundef nonnull %36, i64 noundef %38) #24
  br label %43

41:                                               ; preds = %33
  %42 = tail call noalias ptr @malloc(i64 noundef %38) #22
  br label %43

43:                                               ; preds = %41, %39
  %44 = phi ptr [ %40, %39 ], [ %42, %41 ]
  store ptr %44, ptr %35, align 8, !tbaa !25
  store i32 %34, ptr %18, align 8, !tbaa !24
  br label %Vec_PtrPush.exit

Vec_PtrPush.exit:                                 ; preds = %.Vec_PtrGrow.exit11_crit_edge.i, %Vec_PtrGrow.exit.i, %43
  %45 = phi ptr [ %.pre.i, %.Vec_PtrGrow.exit11_crit_edge.i ], [ %44, %43 ], [ %32, %Vec_PtrGrow.exit.i ]
  %46 = load i32, ptr %19, align 4, !tbaa !22
  %47 = add nsw i32 %46, 1
  store i32 %47, ptr %19, align 4, !tbaa !22
  %48 = sext i32 %46 to i64
  %49 = getelementptr inbounds ptr, ptr %45, i64 %48
  store ptr %9, ptr %49, align 8, !tbaa !34
  ret ptr %9
}